; Function Attrs: mustprogress uwtable
define void @_ZN10open_spiel10algorithms18DeterminizeCorrDevERKSt6vectorISt4pairIdNS_13TabularPolicyEESaIS4_EE(ptr dead_on_unwind noalias writable sret(%"class.std::vector.34") align 8 %0, ptr noundef nonnull readonly align 8 captures(none) dereferenceable(24) %1) local_unnamed_addr #4 personality ptr @__gxx_personality_v0 {
  %3 = alloca %"class.open_spiel::algorithms::CorrDevBuilder", align 8
  call void @_ZN10open_spiel10algorithms14CorrDevBuilderC1Ei(ptr noundef nonnull align 8 dereferenceable(5088) %3, i32 noundef 0)
  %4 = load ptr, ptr %1, align 8
  %5 = getelementptr inbounds nuw i8, ptr %1, i64 8
  %6 = load ptr, ptr %5, align 8
  %.not9 = icmp eq ptr %4, %6
  br i1 %.not9, label %._crit_edge, label %.lr.ph

.lr.ph:                                           ; preds = %2, %9
  %.sroa.06.010 = phi ptr [ %10, %9 ], [ %4, %2 ]
  %7 = getelementptr inbounds nuw i8, ptr %.sroa.06.010, i64 8
  %8 = load double, ptr %.sroa.06.010, align 8
  invoke void @_ZN10open_spiel10algorithms14CorrDevBuilder19AddMixedJointPolicyERKNS_13TabularPolicyEd(ptr noundef nonnull align 8 dereferenceable(5088) %3, ptr noundef nonnull align 8 dereferenceable(64) %7, double noundef %8)
          to label %9 unwind label %.loopexit

9:                                                ; preds = %.lr.ph
  %10 = getelementptr inbounds nuw i8, ptr %.sroa.06.010, i64 72
  %.not = icmp eq ptr %10, %6
  br i1 %.not, label %._crit_edge, label %.lr.ph

.loopexit:                                        ; preds = %.lr.ph
  %lpad.loopexit = landingpad { ptr, i32 }
          cleanup
  br label %11

.loopexit.split-lp:                               ; preds = %._crit_edge
  %lpad.loopexit.split-lp = landingpad { ptr, i32 }
          cleanup
  br label %11

11:                                               ; preds = %.loopexit.split-lp, %.loopexit
  %lpad.phi = phi { ptr, i32 } [ %lpad.loopexit, %.loopexit ], [ %lpad.loopexit.split-lp, %.loopexit.split-lp ]
  call void @_ZN10open_spiel10algorithms14CorrDevBuilderD2Ev(ptr noundef nonnull align 8 dereferenceable(5088) %3) #23
  resume { ptr, i32 } %lpad.phi

._crit_edge:                                      ; preds = %9, %2
  invoke void @_ZNK10open_spiel10algorithms14CorrDevBuilder20GetCorrelationDeviceEv(ptr dead_on_unwind writable sret(%"class.std::vector.34") align 8 %0, ptr noundef nonnull align 8 dereferenceable(5088) %3)
          to label %12 unwind label %.loopexit.split-lp

12:                                               ; preds = %._crit_edge
  call void @_ZN10open_spiel10algorithms14CorrDevBuilderD2Ev(ptr noundef nonnull align 8 dereferenceable(5088) %3) #23
  ret void
}